; ModuleID = '29/977.c'
source_filename = "29/977.c"
target datalayout = "e-m:e-p270:32:32-p271:32:32-p272:64:64-i64:64-f80:128-n8:16:32:64-S128"
target triple = "x86_64-pc-linux-gnu"

@.str = private unnamed_addr constant [3 x i8] c"%d\00", align 1
@.str.1 = private unnamed_addr constant [7 x i8] c"%.3lf\0A\00", align 1

; Function Attrs: noinline nounwind uwtable
define dso_local i32 @main() #0 {
  %1 = alloca i32, align 4
  %2 = alloca i32, align 4
  %3 = alloca i32, align 4
  %4 = alloca i32, align 4
  %5 = alloca i32, align 4
  %6 = alloca [50 x double], align 16
  %7 = alloca double, align 8
  %8 = alloca double, align 8
  store i32 0, i32* %1, align 4
  store double 0.000000e+00, double* %7, align 8
  %9 = call i32 (i8*, ...) @__isoc99_scanf(i8* getelementptr inbounds ([3 x i8], [3 x i8]* @.str, i64 0, i64 0), i32* %2)
  store i32 0, i32* %3, align 4
  br label %10

10:                                               ; preds = %38, %0
  %11 = load i32, i32* %3, align 4
  %12 = load i32, i32* %2, align 4
  %13 = icmp slt i32 %11, %12
  br i1 %13, label %14, label %41

14:                                               ; preds = %10
  %15 = call i32 (i8*, ...) @__isoc99_scanf(i8* getelementptr inbounds ([3 x i8], [3 x i8]* @.str, i64 0, i64 0), i32* %4)
  store i32 0, i32* %5, align 4
  br label %16

16:                                               ; preds = %30, %14
  %17 = load i32, i32* %5, align 4
  %18 = load i32, i32* %4, align 4
  %19 = icmp slt i32 %17, %18
  br i1 %19, label %20, label %33

20:                                               ; preds = %16
  %21 = load i32, i32* %5, align 4
  %22 = add nsw i32 %21, 1
  %23 = call double @fnt(i32 %22)
  %24 = load i32, i32* %5, align 4
  %25 = call double @fnt(i32 %24)
  %26 = fdiv double %23, %25
  store double %26, double* %8, align 8
  %27 = load double, double* %7, align 8
  %28 = load double, double* %8, align 8
  %29 = fadd double %27, %28
  store double %29, double* %7, align 8
  br label %30

30:                                               ; preds = %20
  %31 = load i32, i32* %5, align 4
  %32 = add nsw i32 %31, 1
  store i32 %32, i32* %5, align 4
  br label %16

33:                                               ; preds = %16
  %34 = load double, double* %7, align 8
  %35 = load i32, i32* %3, align 4
  %36 = sext i32 %35 to i64
  %37 = getelementptr inbounds [50 x double], [50 x double]* %6, i64 0, i64 %36
  store double %34, double* %37, align 8
  store double 0.000000e+00, double* %7, align 8
  br label %38

38:                                               ; preds = %33
  %39 = load i32, i32* %3, align 4
  %40 = add nsw i32 %39, 1
  store i32 %40, i32* %3, align 4
  br label %10

41:                                               ; preds = %10
  store i32 0, i32* %3, align 4
  br label %42

42:                                               ; preds = %52, %41
  %43 = load i32, i32* %3, align 4
  %44 = load i32, i32* %2, align 4
  %45 = icmp slt i32 %43, %44
  br i1 %45, label %46, label %55

46:                                               ; preds = %42
  %47 = load i32, i32* %3, align 4
  %48 = sext i32 %47 to i64
  %49 = getelementptr inbounds [50 x double], [50 x double]* %6, i64 0, i64 %48
  %50 = load double, double* %49, align 8
  %51 = call i32 (i8*, ...) @printf(i8* getelementptr inbounds ([7 x i8], [7 x i8]* @.str.1, i64 0, i64 0), double %50)
  br label %52

52:                                               ; preds = %46
  %53 = load i32, i32* %3, align 4
  %54 = add nsw i32 %53, 1
  store i32 %54, i32* %3, align 4
  br label %42

55:                                               ; preds = %42
  ret i32 0
}

declare dso_local i32 @__isoc99_scanf(i8*, ...) #1

; Function Attrs: noinline nounwind uwtable
define dso_local double @fnt(i32 %0) #0 {
  %2 = alloca i32, align 4
  %3 = alloca double, align 8
  %4 = alloca double, align 8
  %5 = alloca double, align 8
  %6 = alloca i32, align 4
  store i32 %0, i32* %2, align 4
  store double 2.000000e+00, double* %4, align 8
  store double 1.000000e+00, double* %5, align 8
  %7 = load i32, i32* %2, align 4
  %8 = icmp eq i32 %7, 0
  br i1 %8, label %9, label %10

9:                                                ; preds = %1
  store double 1.000000e+00, double* %3, align 8
  br label %10

10:                                               ; preds = %9, %1
  %11 = load i32, i32* %2, align 4
  %12 = icmp eq i32 %11, 1
  br i1 %12, label %13, label %14

13:                                               ; preds = %10
  store double 2.000000e+00, double* %3, align 8
  br label %14

14:                                               ; preds = %13, %10
  %15 = load i32, i32* %2, align 4
  %16 = icmp sgt i32 %15, 1
  br i1 %16, label %17, label %32

17:                                               ; preds = %14
  store i32 1, i32* %6, align 4
  br label %18

18:                                               ; preds = %28, %17
  %19 = load i32, i32* %6, align 4
  %20 = load i32, i32* %2, align 4
  %21 = icmp slt i32 %19, %20
  br i1 %21, label %22, label %31

22:                                               ; preds = %18
  %23 = load double, double* %4, align 8
  %24 = load double, double* %5, align 8
  %25 = fadd double %23, %24
  store double %25, double* %3, align 8
  %26 = load double, double* %4, align 8
  store double %26, double* %5, align 8
  %27 = load double, double* %3, align 8
  store double %27, double* %4, align 8
  br label %28

28:                                               ; preds = %22
  %29 = load i32, i32* %6, align 4
  %30 = add nsw i32 %29, 1
  store i32 %30, i32* %6, align 4
  br label %18

31:                                               ; preds = %18
  br label %32

32:                                               ; preds = %31, %14
  %33 = load double, double* %3, align 8
  ret double %33
}

declare dso_local i32 @printf(i8*, ...) #1


!llvm.module.flags = !{!0}
!llvm.ident = !{!1}

!0 = !{i32 1, !"wchar_size", i32 4}
!1 = !{!"clang version 10.0.0-4ubuntu1 "}
